target datalayout = "e-m:e-p270:32:32-p271:32:32-p272:64:64-i64:64-i128:128-f80:128-n8:16:32:64-S128"
target triple = "x86_64-pc-linux-gnu"

%struct.Ver_Man_t_ = type { i32, i32, i32, ptr, ptr, i32, ptr, ptr, ptr, ptr, i32, i32, [2000 x i8], ptr, ptr, ptr, ptr }
%struct.Abc_Des_t_ = type { ptr, ptr, ptr, ptr, ptr, ptr, ptr }
%struct.Abc_Ntk_t_ = type { i32, i32, ptr, ptr, ptr, ptr, ptr, ptr, ptr, ptr, ptr, ptr, ptr, [11 x i32], i32, i32, i32, i32, ptr, i32, ptr, ptr, i32, i32, i32, double, i32, %struct.Vec_Int_t_, ptr, ptr, ptr, ptr, ptr, float, i32, ptr, ptr, ptr, ptr, ptr, ptr, ptr, ptr, ptr, ptr, ptr, ptr, ptr, ptr, ptr, ptr, ptr, ptr, ptr, ptr, ptr, ptr }
%struct.Vec_Int_t_ = type { i32, i32, ptr }

@.str = private unnamed_addr constant [8 x i8] c"%s: %s\0A\00", align 1
@.str.1 = private unnamed_addr constant [18 x i8] c"%s (line %d): %s\0A\00", align 1
@.str.5 = private unnamed_addr constant [190 x i8] c"The network %s appears to have both gates and assign statements. Currently such network are not allowed. One way to fix this problem might be to replace assigns by buffers from the library.\00", align 1

; Function Attrs: nounwind uwtable
define internal void @Ver_ParseFreeData(ptr noundef %0) #0 {
  %2 = alloca ptr, align 8
  store ptr %0, ptr %2, align 8, !tbaa !12
  %3 = load ptr, ptr %2, align 8, !tbaa !12
  %4 = getelementptr inbounds nuw %struct.Ver_Man_t_, ptr %3, i32 0, i32 7
  %5 = load ptr, ptr %4, align 8, !tbaa !24
  %6 = icmp ne ptr %5, null
  br i1 %6, label %7, label %13

7:                                                ; preds = %1
  %8 = load ptr, ptr %2, align 8, !tbaa !12
  %9 = getelementptr inbounds nuw %struct.Ver_Man_t_, ptr %8, i32 0, i32 7
  %10 = load ptr, ptr %9, align 8, !tbaa !24
  call void @Abc_DesFree(ptr noundef %10, ptr noundef null)
  %11 = load ptr, ptr %2, align 8, !tbaa !12
  %12 = getelementptr inbounds nuw %struct.Ver_Man_t_, ptr %11, i32 0, i32 7
  store ptr null, ptr %12, align 8, !tbaa !24
  br label %13

13:                                               ; preds = %7, %1
  ret void
}

; Function Attrs: nounwind uwtable
define void @Ver_ParsePrintErrorMessage(ptr noundef %0) #0 {
  %2 = alloca ptr, align 8
  store ptr %0, ptr %2, align 8, !tbaa !12
  %3 = load ptr, ptr %2, align 8, !tbaa !12
  %4 = getelementptr inbounds nuw %struct.Ver_Man_t_, ptr %3, i32 0, i32 11
  store i32 1, ptr %4, align 4, !tbaa !56
  %5 = load ptr, ptr %2, align 8, !tbaa !12
  %6 = getelementptr inbounds nuw %struct.Ver_Man_t_, ptr %5, i32 0, i32 10
  %7 = load i32, ptr %6, align 8, !tbaa !41
  %8 = icmp ne i32 %7, 0
  br i1 %8, label %9, label %20

9:                                                ; preds = %1
  %10 = load ptr, ptr %2, align 8, !tbaa !12
  %11 = getelementptr inbounds nuw %struct.Ver_Man_t_, ptr %10, i32 0, i32 9
  %12 = load ptr, ptr %11, align 8, !tbaa !30
  %13 = load ptr, ptr %2, align 8, !tbaa !12
  %14 = getelementptr inbounds nuw %struct.Ver_Man_t_, ptr %13, i32 0, i32 3
  %15 = load ptr, ptr %14, align 8, !tbaa !27
  %16 = load ptr, ptr %2, align 8, !tbaa !12
  %17 = getelementptr inbounds nuw %struct.Ver_Man_t_, ptr %16, i32 0, i32 12
  %18 = getelementptr inbounds [2000 x i8], ptr %17, i64 0, i64 0
  %19 = call i32 (ptr, ptr, ...) @fprintf(ptr noundef %12, ptr noundef @.str, ptr noundef %15, ptr noundef %18) #10
  br label %35

20:                                               ; preds = %1
  %21 = load ptr, ptr %2, align 8, !tbaa !12
  %22 = getelementptr inbounds nuw %struct.Ver_Man_t_, ptr %21, i32 0, i32 9
  %23 = load ptr, ptr %22, align 8, !tbaa !30
  %24 = load ptr, ptr %2, align 8, !tbaa !12
  %25 = getelementptr inbounds nuw %struct.Ver_Man_t_, ptr %24, i32 0, i32 3
  %26 = load ptr, ptr %25, align 8, !tbaa !27
  %27 = load ptr, ptr %2, align 8, !tbaa !12
  %28 = getelementptr inbounds nuw %struct.Ver_Man_t_, ptr %27, i32 0, i32 4
  %29 = load ptr, ptr %28, align 8, !tbaa !28
  %30 = call i32 @Ver_StreamGetLineNumber(ptr noundef %29)
  %31 = load ptr, ptr %2, align 8, !tbaa !12
  %32 = getelementptr inbounds nuw %struct.Ver_Man_t_, ptr %31, i32 0, i32 12
  %33 = getelementptr inbounds [2000 x i8], ptr %32, i64 0, i64 0
  %34 = call i32 (ptr, ptr, ...) @fprintf(ptr noundef %23, ptr noundef @.str.1, ptr noundef %26, i32 noundef %30, ptr noundef %33) #10
  br label %35

35:                                               ; preds = %20, %9
  %36 = load ptr, ptr %2, align 8, !tbaa !12
  call void @Ver_ParseFreeData(ptr noundef %36)
  ret void
}

; Function Attrs: nounwind uwtable
define i32 @Ver_ParseConvertNetwork(ptr noundef %0, ptr noundef %1, i32 noundef %2) #0 {
  %4 = alloca i32, align 4
  %5 = alloca ptr, align 8
  %6 = alloca ptr, align 8
  %7 = alloca i32, align 4
  store ptr %0, ptr %5, align 8, !tbaa !12
  store ptr %1, ptr %6, align 8, !tbaa !39
  store i32 %2, ptr %7, align 4, !tbaa !10
  %8 = load i32, ptr %7, align 4, !tbaa !10
  %9 = icmp ne i32 %8, 0
  br i1 %9, label %10, label %41

10:                                               ; preds = %3
  %11 = load ptr, ptr %6, align 8, !tbaa !39
  %12 = getelementptr inbounds nuw %struct.Abc_Ntk_t_, ptr %11, i32 0, i32 1
  %13 = load i32, ptr %12, align 4, !tbaa !60
  %14 = icmp eq i32 %13, 6
  br i1 %14, label %15, label %25

15:                                               ; preds = %10
  %16 = load ptr, ptr %6, align 8, !tbaa !39
  %17 = getelementptr inbounds nuw %struct.Abc_Ntk_t_, ptr %16, i32 0, i32 1
  store i32 4, ptr %17, align 4, !tbaa !60
  %18 = load ptr, ptr %5, align 8, !tbaa !12
  %19 = getelementptr inbounds nuw %struct.Ver_Man_t_, ptr %18, i32 0, i32 7
  %20 = load ptr, ptr %19, align 8, !tbaa !24
  %21 = getelementptr inbounds nuw %struct.Abc_Des_t_, ptr %20, i32 0, i32 6
  %22 = load ptr, ptr %21, align 8, !tbaa !36
  %23 = load ptr, ptr %6, align 8, !tbaa !39
  %24 = getelementptr inbounds nuw %struct.Abc_Ntk_t_, ptr %23, i32 0, i32 30
  store ptr %22, ptr %24, align 8, !tbaa !61
  br label %40

25:                                               ; preds = %10
  %26 = load ptr, ptr %6, align 8, !tbaa !39
  %27 = getelementptr inbounds nuw %struct.Abc_Ntk_t_, ptr %26, i32 0, i32 1
  %28 = load i32, ptr %27, align 4, !tbaa !60
  %29 = icmp ne i32 %28, 4
  br i1 %29, label %30, label %39

30:                                               ; preds = %25
  %31 = load ptr, ptr %5, align 8, !tbaa !12
  %32 = getelementptr inbounds nuw %struct.Ver_Man_t_, ptr %31, i32 0, i32 12
  %33 = getelementptr inbounds [2000 x i8], ptr %32, i64 0, i64 0
  %34 = load ptr, ptr %6, align 8, !tbaa !39
  %35 = getelementptr inbounds nuw %struct.Abc_Ntk_t_, ptr %34, i32 0, i32 2
  %36 = load ptr, ptr %35, align 8, !tbaa !42
  %37 = call i32 (ptr, ptr, ...) @sprintf(ptr noundef %33, ptr noundef @.str.5, ptr noundef %36) #10
  %38 = load ptr, ptr %5, align 8, !tbaa !12
  call void @Ver_ParsePrintErrorMessage(ptr noundef %38)
  store i32 0, ptr %4, align 4
  br label %73

39:                                               ; preds = %25
  br label %40

40:                                               ; preds = %39, %15
  br label %72

41:                                               ; preds = %3
  %42 = load ptr, ptr %6, align 8, !tbaa !39
  %43 = getelementptr inbounds nuw %struct.Abc_Ntk_t_, ptr %42, i32 0, i32 1
  %44 = load i32, ptr %43, align 4, !tbaa !60
  %45 = icmp eq i32 %44, 6
  br i1 %45, label %46, label %56

46:                                               ; preds = %41
  %47 = load ptr, ptr %6, align 8, !tbaa !39
  %48 = getelementptr inbounds nuw %struct.Abc_Ntk_t_, ptr %47, i32 0, i32 1
  store i32 3, ptr %48, align 4, !tbaa !60
  %49 = load ptr, ptr %5, align 8, !tbaa !12
  %50 = getelementptr inbounds nuw %struct.Ver_Man_t_, ptr %49, i32 0, i32 7
  %51 = load ptr, ptr %50, align 8, !tbaa !24
  %52 = getelementptr inbounds nuw %struct.Abc_Des_t_, ptr %51, i32 0, i32 1
  %53 = load ptr, ptr %52, align 8, !tbaa !25
  %54 = load ptr, ptr %6, align 8, !tbaa !39
  %55 = getelementptr inbounds nuw %struct.Abc_Ntk_t_, ptr %54, i32 0, i32 30
  store ptr %53, ptr %55, align 8, !tbaa !61
  br label %71

56:                                               ; preds = %41
  %57 = load ptr, ptr %6, align 8, !tbaa !39
  %58 = getelementptr inbounds nuw %struct.Abc_Ntk_t_, ptr %57, i32 0, i32 1
  %59 = load i32, ptr %58, align 4, !tbaa !60
  %60 = icmp ne i32 %59, 3
  br i1 %60, label %61, label %70

61:                                               ; preds = %56
  %62 = load ptr, ptr %5, align 8, !tbaa !12
  %63 = getelementptr inbounds nuw %struct.Ver_Man_t_, ptr %62, i32 0, i32 12
  %64 = getelementptr inbounds [2000 x i8], ptr %63, i64 0, i64 0
  %65 = load ptr, ptr %6, align 8, !tbaa !39
  %66 = getelementptr inbounds nuw %struct.Abc_Ntk_t_, ptr %65, i32 0, i32 2
  %67 = load ptr, ptr %66, align 8, !tbaa !42
  %68 = call i32 (ptr, ptr, ...) @sprintf(ptr noundef %64, ptr noundef @.str.5, ptr noundef %67) #10
  %69 = load ptr, ptr %5, align 8, !tbaa !12
  call void @Ver_ParsePrintErrorMessage(ptr noundef %69)
  store i32 0, ptr %4, align 4
  br label %73

70:                                               ; preds = %56
  br label %71

71:                                               ; preds = %70, %46
  br label %72

72:                                               ; preds = %71, %40
  store i32 1, ptr %4, align 4
  br label %73

73:                                               ; preds = %72, %61, %30
  %74 = load i32, ptr %4, align 4
  ret i32 %74
}