; Function Attrs: nounwind uwtable
define range(i32 0, 2) i32 @Ver_ParseConvertNetwork(ptr noundef %0, ptr noundef captures(none) %1, i32 noundef %2) local_unnamed_addr #0 {
  %.not = icmp eq i32 %2, 0
  %4 = getelementptr inbounds nuw i8, ptr %1, i64 4
  %5 = load i32, ptr %4, align 4, !tbaa !59
  br i1 %.not, label %36, label %6

6:                                                ; preds = %3
  switch i32 %5, label %13 [
    i32 6, label %7
    i32 4, label %Ver_ParsePrintErrorMessage.exit
  ]

7:                                                ; preds = %6
  store i32 4, ptr %4, align 4, !tbaa !59
  %8 = getelementptr inbounds nuw i8, ptr %0, i64 48
  %9 = load ptr, ptr %8, align 8, !tbaa !33
  %10 = getelementptr inbounds nuw i8, ptr %9, i64 48
  %11 = load ptr, ptr %10, align 8, !tbaa !36
  %12 = getelementptr inbounds nuw i8, ptr %1, i64 256
  store ptr %11, ptr %12, align 8, !tbaa !90
  br label %Ver_ParsePrintErrorMessage.exit

13:                                               ; preds = %6
  %14 = getelementptr inbounds nuw i8, ptr %0, i64 80
  %15 = getelementptr inbounds nuw i8, ptr %1, i64 8
  %16 = load ptr, ptr %15, align 8, !tbaa !45
  %17 = tail call i32 (ptr, ptr, ...) @sprintf(ptr noundef nonnull dereferenceable(1) %14, ptr noundef nonnull dereferenceable(1) @.str.5, ptr noundef %16) #20
  %18 = getelementptr inbounds nuw i8, ptr %0, i64 76
  store i32 1, ptr %18, align 4, !tbaa !43
  %19 = getelementptr inbounds nuw i8, ptr %0, i64 72
  %20 = load i32, ptr %19, align 8, !tbaa !44
  %.not.i = icmp eq i32 %20, 0
  %21 = getelementptr inbounds nuw i8, ptr %0, i64 64
  %22 = load ptr, ptr %21, align 8, !tbaa !19
  %23 = getelementptr inbounds nuw i8, ptr %0, i64 16
  %24 = load ptr, ptr %23, align 8, !tbaa !3
  br i1 %.not.i, label %27, label %25

25:                                               ; preds = %13
  %26 = tail call i32 (ptr, ptr, ...) @fprintf(ptr noundef %22, ptr noundef nonnull @.str, ptr noundef %24, ptr noundef nonnull %14) #20
  br label %32

27:                                               ; preds = %13
  %28 = getelementptr inbounds nuw i8, ptr %0, i64 24
  %29 = load ptr, ptr %28, align 8, !tbaa !17
  %30 = tail call i32 @Ver_StreamGetLineNumber(ptr noundef %29) #20
  %31 = tail call i32 (ptr, ptr, ...) @fprintf(ptr noundef %22, ptr noundef nonnull @.str.1, ptr noundef %24, i32 noundef %30, ptr noundef nonnull %14) #20
  br label %32

32:                                               ; preds = %27, %25
  %33 = getelementptr inbounds nuw i8, ptr %0, i64 48
  %34 = load ptr, ptr %33, align 8, !tbaa !33
  %.not.i.i = icmp eq ptr %34, null
  br i1 %.not.i.i, label %Ver_ParsePrintErrorMessage.exit, label %35

35:                                               ; preds = %32
  tail call void @Abc_DesFree(ptr noundef nonnull %34, ptr noundef null) #20
  store ptr null, ptr %33, align 8, !tbaa !33
  br label %Ver_ParsePrintErrorMessage.exit

36:                                               ; preds = %3
  switch i32 %5, label %43 [
    i32 6, label %37
    i32 3, label %Ver_ParsePrintErrorMessage.exit
  ]

37:                                               ; preds = %36
  store i32 3, ptr %4, align 4, !tbaa !59
  %38 = getelementptr inbounds nuw i8, ptr %0, i64 48
  %39 = load ptr, ptr %38, align 8, !tbaa !33
  %40 = getelementptr inbounds nuw i8, ptr %39, i64 8
  %41 = load ptr, ptr %40, align 8, !tbaa !41
  %42 = getelementptr inbounds nuw i8, ptr %1, i64 256
  store ptr %41, ptr %42, align 8, !tbaa !90
  br label %Ver_ParsePrintErrorMessage.exit

43:                                               ; preds = %36
  %44 = getelementptr inbounds nuw i8, ptr %0, i64 80
  %45 = getelementptr inbounds nuw i8, ptr %1, i64 8
  %46 = load ptr, ptr %45, align 8, !tbaa !45
  %47 = tail call i32 (ptr, ptr, ...) @sprintf(ptr noundef nonnull dereferenceable(1) %44, ptr noundef nonnull dereferenceable(1) @.str.5, ptr noundef %46) #20
  %48 = getelementptr inbounds nuw i8, ptr %0, i64 76
  store i32 1, ptr %48, align 4, !tbaa !43
  %49 = getelementptr inbounds nuw i8, ptr %0, i64 72
  %50 = load i32, ptr %49, align 8, !tbaa !44
  %.not.i21 = icmp eq i32 %50, 0
  %51 = getelementptr inbounds nuw i8, ptr %0, i64 64
  %52 = load ptr, ptr %51, align 8, !tbaa !19
  %53 = getelementptr inbounds nuw i8, ptr %0, i64 16
  %54 = load ptr, ptr %53, align 8, !tbaa !3
  br i1 %.not.i21, label %57, label %55

55:                                               ; preds = %43
  %56 = tail call i32 (ptr, ptr, ...) @fprintf(ptr noundef %52, ptr noundef nonnull @.str, ptr noundef %54, ptr noundef nonnull %44) #20
  br label %62

57:                                               ; preds = %43
  %58 = getelementptr inbounds nuw i8, ptr %0, i64 24
  %59 = load ptr, ptr %58, align 8, !tbaa !17
  %60 = tail call i32 @Ver_StreamGetLineNumber(ptr noundef %59) #20
  %61 = tail call i32 (ptr, ptr, ...) @fprintf(ptr noundef %52, ptr noundef nonnull @.str.1, ptr noundef %54, i32 noundef %60, ptr noundef nonnull %44) #20
  br label %62

62:                                               ; preds = %57, %55
  %63 = getelementptr inbounds nuw i8, ptr %0, i64 48
  %64 = load ptr, ptr %63, align 8, !tbaa !33
  %.not.i.i22 = icmp eq ptr %64, null
  br i1 %.not.i.i22, label %Ver_ParsePrintErrorMessage.exit, label %65

65:                                               ; preds = %62
  tail call void @Abc_DesFree(ptr noundef nonnull %64, ptr noundef null) #20
  store ptr null, ptr %63, align 8, !tbaa !33
  br label %Ver_ParsePrintErrorMessage.exit

Ver_ParsePrintErrorMessage.exit:                  ; preds = %65, %62, %35, %32, %7, %37, %6, %36
  %.0 = phi i32 [ 1, %36 ], [ 1, %6 ], [ 1, %37 ], [ 1, %7 ], [ 0, %32 ], [ 0, %35 ], [ 0, %62 ], [ 0, %65 ]
  ret i32 %.0
}